target datalayout = "e-m:e-p270:32:32-p271:32:32-p272:64:64-i64:64-i128:128-f80:128-n8:16:32:64-S128"
target triple = "x86_64-pc-linux-gnu"

%"class.rocksdb::FullFilterBlockBuilder" = type { %"class.rocksdb::FilterBlockBuilder", %"class.std::unique_ptr", ptr, i8, %"class.std::unique_ptr.2" }
%"class.rocksdb::FilterBlockBuilder" = type { ptr }
%"class.std::unique_ptr" = type { %"struct.std::__uniq_ptr_data" }
%"struct.std::__uniq_ptr_data" = type { %"class.std::__uniq_ptr_impl" }
%"class.std::__uniq_ptr_impl" = type { %"class.std::tuple" }
%"class.std::tuple" = type { %"struct.std::_Tuple_impl" }
%"struct.std::_Tuple_impl" = type { %"struct.std::_Head_base.1" }
%"struct.std::_Head_base.1" = type { ptr }
%"class.std::unique_ptr.2" = type { %"struct.std::__uniq_ptr_data.3" }
%"struct.std::__uniq_ptr_data.3" = type { %"class.std::__uniq_ptr_impl.4" }
%"class.std::__uniq_ptr_impl.4" = type { %"class.std::tuple.5" }
%"class.std::tuple.5" = type { %"struct.std::_Tuple_impl.6" }
%"struct.std::_Tuple_impl.6" = type { %"struct.std::_Head_base.9" }
%"struct.std::_Head_base.9" = type { ptr }
%"class.rocksdb::Slice" = type { ptr, i64 }

; Function Attrs: mustprogress nounwind uwtable
define linkonce_odr noundef nonnull align 8 dereferenceable(8) ptr @_ZNSt10_Head_baseILm0EPN7rocksdb17FilterBitsBuilderELb0EE7_M_headERKS3_(ptr noundef nonnull align 8 dereferenceable(8) %0) #3 comdat align 2 {
  %2 = alloca ptr, align 8
  store ptr %0, ptr %2, align 8, !tbaa !192
  %3 = load ptr, ptr %2, align 8, !tbaa !192
  %4 = getelementptr inbounds nuw %"struct.std::_Head_base.1", ptr %3, i32 0, i32 0
  ret ptr %4
}

; Function Attrs: mustprogress nounwind uwtable
define linkonce_odr noundef nonnull align 8 dereferenceable(8) ptr @_ZNSt11_Tuple_implILm0EJPN7rocksdb17FilterBitsBuilderESt14default_deleteIS1_EEE7_M_headERKS5_(ptr noundef nonnull align 8 dereferenceable(8) %0) #3 comdat align 2 {
  %2 = alloca ptr, align 8
  store ptr %0, ptr %2, align 8, !tbaa !188
  %3 = load ptr, ptr %2, align 8, !tbaa !188
  %4 = call noundef nonnull align 8 dereferenceable(8) ptr @_ZNSt10_Head_baseILm0EPN7rocksdb17FilterBitsBuilderELb0EE7_M_headERKS3_(ptr noundef nonnull align 8 dereferenceable(8) %3) #4
  ret ptr %4
}

; Function Attrs: mustprogress nounwind uwtable
define linkonce_odr noundef nonnull align 8 dereferenceable(8) ptr @_ZSt12__get_helperILm0EPN7rocksdb17FilterBitsBuilderEJSt14default_deleteIS1_EEERKT0_RKSt11_Tuple_implIXT_EJS5_DpT1_EE(ptr noundef nonnull align 8 dereferenceable(8) %0) #3 comdat {
  %2 = alloca ptr, align 8
  store ptr %0, ptr %2, align 8, !tbaa !188
  %3 = load ptr, ptr %2, align 8, !tbaa !188
  %4 = call noundef nonnull align 8 dereferenceable(8) ptr @_ZNSt11_Tuple_implILm0EJPN7rocksdb17FilterBitsBuilderESt14default_deleteIS1_EEE7_M_headERKS5_(ptr noundef nonnull align 8 dereferenceable(8) %3) #4
  ret ptr %4
}

; Function Attrs: mustprogress nounwind uwtable
define linkonce_odr noundef nonnull align 8 dereferenceable(8) ptr @_ZSt3getILm0EJPN7rocksdb17FilterBitsBuilderESt14default_deleteIS1_EEERKNSt13tuple_elementIXT_ESt5tupleIJDpT0_EEE4typeERKS9_(ptr noundef nonnull align 8 dereferenceable(8) %0) #3 comdat {
  %2 = alloca ptr, align 8
  store ptr %0, ptr %2, align 8, !tbaa !186
  %3 = load ptr, ptr %2, align 8, !tbaa !186
  %4 = call noundef nonnull align 8 dereferenceable(8) ptr @_ZSt12__get_helperILm0EPN7rocksdb17FilterBitsBuilderEJSt14default_deleteIS1_EEERKT0_RKSt11_Tuple_implIXT_EJS5_DpT1_EE(ptr noundef nonnull align 8 dereferenceable(8) %3) #4
  ret ptr %4
}

; Function Attrs: mustprogress nounwind uwtable
define linkonce_odr noundef ptr @_ZNKSt15__uniq_ptr_implIN7rocksdb17FilterBitsBuilderESt14default_deleteIS1_EE6_M_ptrEv(ptr noundef nonnull align 8 dereferenceable(8) %0) #3 comdat align 2 {
  %2 = alloca ptr, align 8
  store ptr %0, ptr %2, align 8, !tbaa !184
  %3 = load ptr, ptr %2, align 8
  %4 = getelementptr inbounds nuw %"class.std::__uniq_ptr_impl", ptr %3, i32 0, i32 0
  %5 = call noundef nonnull align 8 dereferenceable(8) ptr @_ZSt3getILm0EJPN7rocksdb17FilterBitsBuilderESt14default_deleteIS1_EEERKNSt13tuple_elementIXT_ESt5tupleIJDpT0_EEE4typeERKS9_(ptr noundef nonnull align 8 dereferenceable(8) %4) #4
  %6 = load ptr, ptr %5, align 8, !tbaa !23
  ret ptr %6
}

; Function Attrs: mustprogress nounwind uwtable
define linkonce_odr noundef ptr @_ZNKSt10unique_ptrIN7rocksdb17FilterBitsBuilderESt14default_deleteIS1_EE3getEv(ptr noundef nonnull align 8 dereferenceable(8) %0) #3 comdat align 2 {
  %2 = alloca ptr, align 8
  store ptr %0, ptr %2, align 8, !tbaa !48
  %3 = load ptr, ptr %2, align 8
  %4 = getelementptr inbounds nuw %"class.std::unique_ptr", ptr %3, i32 0, i32 0
  %5 = call noundef ptr @_ZNKSt15__uniq_ptr_implIN7rocksdb17FilterBitsBuilderESt14default_deleteIS1_EE6_M_ptrEv(ptr noundef nonnull align 8 dereferenceable(8) %4) #4
  ret ptr %5
}

; Function Attrs: mustprogress nounwind uwtable
define linkonce_odr noundef ptr @_ZNKSt10unique_ptrIN7rocksdb17FilterBitsBuilderESt14default_deleteIS1_EEptEv(ptr noundef nonnull align 8 dereferenceable(8) %0) #3 comdat align 2 {
  %2 = alloca ptr, align 8
  store ptr %0, ptr %2, align 8, !tbaa !48
  %3 = load ptr, ptr %2, align 8
  %4 = call noundef ptr @_ZNKSt10unique_ptrIN7rocksdb17FilterBitsBuilderESt14default_deleteIS1_EE3getEv(ptr noundef nonnull align 8 dereferenceable(8) %3) #4
  ret ptr %4
}

; Function Attrs: mustprogress uwtable
define void @_ZN7rocksdb22FullFilterBlockBuilder3AddERKNS_5SliceE(ptr noundef nonnull align 8 dereferenceable(40) %0, ptr noundef nonnull align 8 dereferenceable(16) %1) unnamed_addr #5 align 2 {
  %3 = alloca ptr, align 8
  %4 = alloca ptr, align 8
  %5 = alloca %"class.rocksdb::Slice", align 8
  store ptr %0, ptr %3, align 8, !tbaa !17
  store ptr %1, ptr %4, align 8, !tbaa !52
  %6 = load ptr, ptr %3, align 8
  %7 = getelementptr inbounds nuw %"class.rocksdb::FullFilterBlockBuilder", ptr %6, i32 0, i32 2
  %8 = load ptr, ptr %7, align 8, !tbaa !27
  %9 = icmp ne ptr %8, null
  br i1 %9, label %10, label %47

10:                                               ; preds = %2
  %11 = getelementptr inbounds nuw %"class.rocksdb::FullFilterBlockBuilder", ptr %6, i32 0, i32 2
  %12 = load ptr, ptr %11, align 8, !tbaa !27
  %13 = load ptr, ptr %4, align 8, !tbaa !52
  %14 = load ptr, ptr %12, align 8, !tbaa !25
  %15 = getelementptr inbounds ptr, ptr %14, i64 20
  %16 = load ptr, ptr %15, align 8
  %17 = call noundef zeroext i1 %16(ptr noundef nonnull align 8 dereferenceable(32) %12, ptr noundef nonnull align 8 dereferenceable(16) %13)
  br i1 %17, label %18, label %47

18:                                               ; preds = %10
  call void @llvm.lifetime.start.p0(i64 16, ptr %5) #4
  %19 = getelementptr inbounds nuw %"class.rocksdb::FullFilterBlockBuilder", ptr %6, i32 0, i32 2
  %20 = load ptr, ptr %19, align 8, !tbaa !27
  %21 = load ptr, ptr %4, align 8, !tbaa !52
  %22 = load ptr, ptr %20, align 8, !tbaa !25
  %23 = getelementptr inbounds ptr, ptr %22, i64 19
  %24 = load ptr, ptr %23, align 8
  %25 = call { ptr, i64 } %24(ptr noundef nonnull align 8 dereferenceable(32) %20, ptr noundef nonnull align 8 dereferenceable(16) %21)
  %26 = getelementptr inbounds nuw { ptr, i64 }, ptr %5, i32 0, i32 0
  %27 = extractvalue { ptr, i64 } %25, 0
  store ptr %27, ptr %26, align 8
  %28 = getelementptr inbounds nuw { ptr, i64 }, ptr %5, i32 0, i32 1
  %29 = extractvalue { ptr, i64 } %25, 1
  store i64 %29, ptr %28, align 8
  %30 = getelementptr inbounds nuw %"class.rocksdb::FullFilterBlockBuilder", ptr %6, i32 0, i32 3
  %31 = load i8, ptr %30, align 8, !tbaa !45, !range !43, !noundef !44
  %32 = trunc i8 %31 to i1
  br i1 %32, label %33, label %40

33:                                               ; preds = %18
  %34 = getelementptr inbounds nuw %"class.rocksdb::FullFilterBlockBuilder", ptr %6, i32 0, i32 1
  %35 = call noundef ptr @_ZNKSt10unique_ptrIN7rocksdb17FilterBitsBuilderESt14default_deleteIS1_EEptEv(ptr noundef nonnull align 8 dereferenceable(8) %34) #4
  %36 = load ptr, ptr %4, align 8, !tbaa !52
  %37 = load ptr, ptr %35, align 8, !tbaa !25
  %38 = getelementptr inbounds ptr, ptr %37, i64 3
  %39 = load ptr, ptr %38, align 8
  call void %39(ptr noundef nonnull align 8 dereferenceable(8) %35, ptr noundef nonnull align 8 dereferenceable(16) %36, ptr noundef nonnull align 8 dereferenceable(16) %5)
  br label %46

40:                                               ; preds = %18
  %41 = getelementptr inbounds nuw %"class.rocksdb::FullFilterBlockBuilder", ptr %6, i32 0, i32 1
  %42 = call noundef ptr @_ZNKSt10unique_ptrIN7rocksdb17FilterBitsBuilderESt14default_deleteIS1_EEptEv(ptr noundef nonnull align 8 dereferenceable(8) %41) #4
  %43 = load ptr, ptr %42, align 8, !tbaa !25
  %44 = getelementptr inbounds ptr, ptr %43, i64 2
  %45 = load ptr, ptr %44, align 8
  call void %45(ptr noundef nonnull align 8 dereferenceable(8) %42, ptr noundef nonnull align 8 dereferenceable(16) %5)
  br label %46

46:                                               ; preds = %40, %33
  call void @llvm.lifetime.end.p0(i64 16, ptr %5) #4
  br label %59

47:                                               ; preds = %10, %2
  %48 = getelementptr inbounds nuw %"class.rocksdb::FullFilterBlockBuilder", ptr %6, i32 0, i32 3
  %49 = load i8, ptr %48, align 8, !tbaa !45, !range !43, !noundef !44
  %50 = trunc i8 %49 to i1
  br i1 %50, label %51, label %58

51:                                               ; preds = %47
  %52 = getelementptr inbounds nuw %"class.rocksdb::FullFilterBlockBuilder", ptr %6, i32 0, i32 1
  %53 = call noundef ptr @_ZNKSt10unique_ptrIN7rocksdb17FilterBitsBuilderESt14default_deleteIS1_EEptEv(ptr noundef nonnull align 8 dereferenceable(8) %52) #4
  %54 = load ptr, ptr %4, align 8, !tbaa !52
  %55 = load ptr, ptr %53, align 8, !tbaa !25
  %56 = getelementptr inbounds ptr, ptr %55, i64 2
  %57 = load ptr, ptr %56, align 8
  call void %57(ptr noundef nonnull align 8 dereferenceable(8) %53, ptr noundef nonnull align 8 dereferenceable(16) %54)
  br label %58

58:                                               ; preds = %51, %47
  br label %59

59:                                               ; preds = %58, %46
  ret void
}