; Function Attrs: mustprogress uwtable
define void @_ZN7rocksdb22FullFilterBlockBuilder3AddERKNS_5SliceE(ptr noundef nonnull readonly align 8 captures(none) dereferenceable(40) %0, ptr noundef nonnull align 8 dereferenceable(16) %1) unnamed_addr #4 align 2 {
  %3 = alloca %"class.rocksdb::Slice", align 8
  %4 = getelementptr inbounds nuw i8, ptr %0, i64 16
  %5 = load ptr, ptr %4, align 8, !tbaa !13
  %.not = icmp eq ptr %5, null
  br i1 %.not, label %33, label %6

6:                                                ; preds = %2
  %7 = load ptr, ptr %5, align 8, !tbaa !11
  %8 = getelementptr inbounds nuw i8, ptr %7, i64 160
  %9 = load ptr, ptr %8, align 8
  %10 = tail call noundef zeroext i1 %9(ptr noundef nonnull align 8 dereferenceable(32) %5, ptr noundef nonnull align 8 dereferenceable(16) %1)
  br i1 %10, label %11, label %33

11:                                               ; preds = %6
  call void @llvm.lifetime.start.p0(i64 16, ptr nonnull %3) #22
  %12 = load ptr, ptr %4, align 8, !tbaa !13
  %13 = load ptr, ptr %12, align 8, !tbaa !11
  %14 = getelementptr inbounds nuw i8, ptr %13, i64 152
  %15 = load ptr, ptr %14, align 8
  %16 = tail call { ptr, i64 } %15(ptr noundef nonnull align 8 dereferenceable(32) %12, ptr noundef nonnull align 8 dereferenceable(16) %1)
  %17 = extractvalue { ptr, i64 } %16, 0
  store ptr %17, ptr %3, align 8
  %18 = getelementptr inbounds nuw i8, ptr %3, i64 8
  %19 = extractvalue { ptr, i64 } %16, 1
  store i64 %19, ptr %18, align 8
  %20 = getelementptr inbounds nuw i8, ptr %0, i64 24
  %21 = load i8, ptr %20, align 8, !tbaa !32, !range !35, !noundef !36
  %22 = trunc nuw i8 %21 to i1
  %23 = getelementptr inbounds nuw i8, ptr %0, i64 8
  %24 = load ptr, ptr %23, align 8, !tbaa !34
  %25 = load ptr, ptr %24, align 8, !tbaa !11
  br i1 %22, label %26, label %29

26:                                               ; preds = %11
  %27 = getelementptr inbounds nuw i8, ptr %25, i64 24
  %28 = load ptr, ptr %27, align 8
  call void %28(ptr noundef nonnull align 8 dereferenceable(8) %24, ptr noundef nonnull align 8 dereferenceable(16) %1, ptr noundef nonnull align 8 dereferenceable(16) %3)
  br label %32

29:                                               ; preds = %11
  %30 = getelementptr inbounds nuw i8, ptr %25, i64 16
  %31 = load ptr, ptr %30, align 8
  call void %31(ptr noundef nonnull align 8 dereferenceable(8) %24, ptr noundef nonnull align 8 dereferenceable(16) %3)
  br label %32

32:                                               ; preds = %29, %26
  call void @llvm.lifetime.end.p0(i64 16, ptr nonnull %3) #22
  br label %43

33:                                               ; preds = %6, %2
  %34 = getelementptr inbounds nuw i8, ptr %0, i64 24
  %35 = load i8, ptr %34, align 8, !tbaa !32, !range !35, !noundef !36
  %36 = trunc nuw i8 %35 to i1
  br i1 %36, label %37, label %43

37:                                               ; preds = %33
  %38 = getelementptr inbounds nuw i8, ptr %0, i64 8
  %39 = load ptr, ptr %38, align 8, !tbaa !34
  %40 = load ptr, ptr %39, align 8, !tbaa !11
  %41 = getelementptr inbounds nuw i8, ptr %40, i64 16
  %42 = load ptr, ptr %41, align 8
  tail call void %42(ptr noundef nonnull align 8 dereferenceable(8) %39, ptr noundef nonnull align 8 dereferenceable(16) %1)
  br label %43

43:                                               ; preds = %33, %37, %32
  ret void
}